target datalayout = "e-m:e-p270:32:32-p271:32:32-p272:64:64-i64:64-i128:128-f80:128-n8:16:32:64-S128"
target triple = "x86_64-pc-linux-gnu"

%struct.png_struct_def = type { [1 x %struct.__jmp_buf_tag], ptr, ptr, i64, ptr, ptr, ptr, ptr, ptr, ptr, ptr, ptr, ptr, i8, i8, i32, i32, i32, i32, %struct.z_stream_s, ptr, i32, i32, i32, i32, i32, i32, i32, i32, i32, i32, i32, i32, i32, i32, i32, i32, i32, i32, i32, i32, i32, i64, i32, i32, i32, ptr, ptr, ptr, ptr, i64, i32, i32, ptr, i16, i32, i16, i8, i8, i8, i8, i8, i8, i8, i8, i8, i8, i8, i8, i8, i8, i8, i16, i8, i32, %struct.png_color_16_struct, %struct.png_color_16_struct, ptr, i32, i32, %struct.png_xy, i32, i32, i32, i32, i32, ptr, ptr, ptr, ptr, ptr, ptr, %struct.png_color_8_struct, %struct.png_color_8_struct, ptr, %struct.png_color_16_struct, ptr, ptr, ptr, ptr, ptr, ptr, ptr, ptr, ptr, i32, i32, i64, i64, i64, i64, i32, i32, ptr, ptr, i32, [29 x i8], i32, ptr, ptr, i32, i32, ptr, i8, i8, i16, i16, ptr, i32, i8, ptr, ptr, ptr, ptr, ptr, ptr, ptr, i8, i32, i32, i32, i64, %struct.png_unknown_chunk_t, i64, ptr, i64, i32, i32, ptr, [4 x ptr] }
%struct.__jmp_buf_tag = type { [8 x i64], i32, %struct.__sigset_t }
%struct.__sigset_t = type { [16 x i64] }
%struct.z_stream_s = type { ptr, i32, i64, ptr, i32, i64, ptr, ptr, ptr, ptr, ptr, i32, i64, i64 }
%struct.png_xy = type { i32, i32, i32, i32, i32, i32, i32, i32 }
%struct.png_color_8_struct = type { i8, i8, i8, i8, i8 }
%struct.png_color_16_struct = type { i8, i16, i16, i16, i16 }
%struct.png_unknown_chunk_t = type { [5 x i8], ptr, i64, i8 }
%struct.png_image = type { ptr, i32, i32, i32, i32, i32, i32, i32, [64 x i8] }
%struct.png_control = type { ptr, ptr, ptr, ptr, i64, i8 }

@.str.3 = private unnamed_addr constant [14 x i8] c"bad longjmp: \00", align 1

; Function Attrs: nounwind uwtable
define i64 @png_safecat(ptr noundef %0, i64 noundef %1, i64 noundef %2, ptr noundef %3) #1 {
  %5 = alloca ptr, align 8
  %6 = alloca i64, align 8
  %7 = alloca i64, align 8
  %8 = alloca ptr, align 8
  store ptr %0, ptr %5, align 8, !tbaa !8
  store i64 %1, ptr %6, align 8, !tbaa !27
  store i64 %2, ptr %7, align 8, !tbaa !27
  store ptr %3, ptr %8, align 8, !tbaa !8
  %9 = load ptr, ptr %5, align 8, !tbaa !8
  %10 = icmp ne ptr %9, null
  br i1 %10, label %11, label %44

11:                                               ; preds = %4
  %12 = load i64, ptr %7, align 8, !tbaa !27
  %13 = load i64, ptr %6, align 8, !tbaa !27
  %14 = icmp ult i64 %12, %13
  br i1 %14, label %15, label %44

15:                                               ; preds = %11
  %16 = load ptr, ptr %8, align 8, !tbaa !8
  %17 = icmp ne ptr %16, null
  br i1 %17, label %18, label %40

18:                                               ; preds = %15
  br label %19

19:                                               ; preds = %31, %18
  %20 = load ptr, ptr %8, align 8, !tbaa !8
  %21 = load i8, ptr %20, align 1, !tbaa !28
  %22 = sext i8 %21 to i32
  %23 = icmp ne i32 %22, 0
  br i1 %23, label %24, label %29

24:                                               ; preds = %19
  %25 = load i64, ptr %7, align 8, !tbaa !27
  %26 = load i64, ptr %6, align 8, !tbaa !27
  %27 = sub i64 %26, 1
  %28 = icmp ult i64 %25, %27
  br label %29

29:                                               ; preds = %24, %19
  %30 = phi i1 [ false, %19 ], [ %28, %24 ]
  br i1 %30, label %31, label %39

31:                                               ; preds = %29
  %32 = load ptr, ptr %8, align 8, !tbaa !8
  %33 = getelementptr inbounds nuw i8, ptr %32, i32 1
  store ptr %33, ptr %8, align 8, !tbaa !8
  %34 = load i8, ptr %32, align 1, !tbaa !28
  %35 = load ptr, ptr %5, align 8, !tbaa !8
  %36 = load i64, ptr %7, align 8, !tbaa !27
  %37 = add i64 %36, 1
  store i64 %37, ptr %7, align 8, !tbaa !27
  %38 = getelementptr inbounds nuw i8, ptr %35, i64 %36
  store i8 %34, ptr %38, align 1, !tbaa !28
  br label %19, !llvm.loop !29

39:                                               ; preds = %29
  br label %40

40:                                               ; preds = %39, %15
  %41 = load ptr, ptr %5, align 8, !tbaa !8
  %42 = load i64, ptr %7, align 8, !tbaa !27
  %43 = getelementptr inbounds nuw i8, ptr %41, i64 %42
  store i8 0, ptr %43, align 1, !tbaa !28
  br label %44

44:                                               ; preds = %40, %11, %4
  %45 = load i64, ptr %7, align 8, !tbaa !27
  ret i64 %45
}

; Function Attrs: noreturn nounwind uwtable
define void @png_safe_error(ptr noundef %0, ptr noundef %1) #0 {
  %3 = alloca ptr, align 8
  %4 = alloca ptr, align 8
  %5 = alloca ptr, align 8
  %6 = alloca ptr, align 8
  %7 = alloca i64, align 8
  store ptr %0, ptr %3, align 8, !tbaa !3
  store ptr %1, ptr %4, align 8, !tbaa !8
  call void @llvm.lifetime.start.p0(i64 8, ptr %5) #10
  %8 = load ptr, ptr %3, align 8, !tbaa !3
  store ptr %8, ptr %5, align 8, !tbaa !3
  call void @llvm.lifetime.start.p0(i64 8, ptr %6) #10
  %9 = load ptr, ptr %5, align 8, !tbaa !3
  %10 = getelementptr inbounds nuw %struct.png_struct_def, ptr %9, i32 0, i32 6
  %11 = load ptr, ptr %10, align 8, !tbaa !49
  store ptr %11, ptr %6, align 8, !tbaa !44
  %12 = load ptr, ptr %6, align 8, !tbaa !44
  %13 = icmp ne ptr %12, null
  br i1 %13, label %14, label %52

14:                                               ; preds = %2
  %15 = load ptr, ptr %6, align 8, !tbaa !44
  %16 = getelementptr inbounds nuw %struct.png_image, ptr %15, i32 0, i32 8
  %17 = getelementptr inbounds [64 x i8], ptr %16, i64 0, i64 0
  %18 = load ptr, ptr %4, align 8, !tbaa !8
  %19 = call i64 @png_safecat(ptr noundef %17, i64 noundef 64, i64 noundef 0, ptr noundef %18)
  %20 = load ptr, ptr %6, align 8, !tbaa !44
  %21 = getelementptr inbounds nuw %struct.png_image, ptr %20, i32 0, i32 7
  %22 = load i32, ptr %21, align 8, !tbaa !50
  %23 = or i32 %22, 2
  store i32 %23, ptr %21, align 8, !tbaa !50
  %24 = load ptr, ptr %6, align 8, !tbaa !44
  %25 = getelementptr inbounds nuw %struct.png_image, ptr %24, i32 0, i32 0
  %26 = load ptr, ptr %25, align 8, !tbaa !53
  %27 = icmp ne ptr %26, null
  br i1 %27, label %28, label %41

28:                                               ; preds = %14
  %29 = load ptr, ptr %6, align 8, !tbaa !44
  %30 = getelementptr inbounds nuw %struct.png_image, ptr %29, i32 0, i32 0
  %31 = load ptr, ptr %30, align 8, !tbaa !53
  %32 = getelementptr inbounds nuw %struct.png_control, ptr %31, i32 0, i32 2
  %33 = load ptr, ptr %32, align 8, !tbaa !54
  %34 = icmp ne ptr %33, null
  br i1 %34, label %35, label %41

35:                                               ; preds = %28
  %36 = load ptr, ptr %6, align 8, !tbaa !44
  %37 = getelementptr inbounds nuw %struct.png_image, ptr %36, i32 0, i32 0
  %38 = load ptr, ptr %37, align 8, !tbaa !53
  %39 = getelementptr inbounds nuw %struct.png_control, ptr %38, i32 0, i32 2
  %40 = load ptr, ptr %39, align 8, !tbaa !54
  call void @longjmp(ptr noundef %40, i32 noundef 1) #12
  unreachable

41:                                               ; preds = %28, %14
  call void @llvm.lifetime.start.p0(i64 8, ptr %7) #10
  %42 = load ptr, ptr %6, align 8, !tbaa !44
  %43 = getelementptr inbounds nuw %struct.png_image, ptr %42, i32 0, i32 8
  %44 = getelementptr inbounds [64 x i8], ptr %43, i64 0, i64 0
  %45 = call i64 @png_safecat(ptr noundef %44, i64 noundef 64, i64 noundef 0, ptr noundef @.str.3)
  store i64 %45, ptr %7, align 8, !tbaa !27
  %46 = load ptr, ptr %6, align 8, !tbaa !44
  %47 = getelementptr inbounds nuw %struct.png_image, ptr %46, i32 0, i32 8
  %48 = getelementptr inbounds [64 x i8], ptr %47, i64 0, i64 0
  %49 = load i64, ptr %7, align 8, !tbaa !27
  %50 = load ptr, ptr %4, align 8, !tbaa !8
  %51 = call i64 @png_safecat(ptr noundef %48, i64 noundef 64, i64 noundef %49, ptr noundef %50)
  call void @llvm.lifetime.end.p0(i64 8, ptr %7) #10
  br label %52

52:                                               ; preds = %41, %2
  call void @abort() #12
  unreachable
}