; Function Attrs: noreturn nounwind uwtable
define void @png_safe_error(ptr noundef readonly captures(none) %0, ptr noundef readonly captures(address_is_null) %1) local_unnamed_addr #0 {
  %3 = getelementptr inbounds nuw i8, ptr %0, i64 240
  %4 = load ptr, ptr %3, align 8, !tbaa !76
  %.not = icmp eq ptr %4, null
  br i1 %.not, label %42, label %5

5:                                                ; preds = %2
  %6 = getelementptr inbounds nuw i8, ptr %4, i64 36
  %.not18.i = icmp eq ptr %1, null
  br i1 %.not18.i, label %png_safecat.exit, label %.preheader.i

.preheader.i:                                     ; preds = %5
  %7 = load i8, ptr %1, align 1, !tbaa !24
  %.not29 = icmp eq i8 %7, 0
  br i1 %.not29, label %png_safecat.exit, label %.lr.ph.i

.lr.ph.i:                                         ; preds = %.preheader.i, %.lr.ph.i
  %8 = phi i8 [ %12, %.lr.ph.i ], [ %7, %.preheader.i ]
  %.020.i = phi ptr [ %9, %.lr.ph.i ], [ %1, %.preheader.i ]
  %.219.i = phi i64 [ %10, %.lr.ph.i ], [ 0, %.preheader.i ]
  %9 = getelementptr inbounds nuw i8, ptr %.020.i, i64 1
  %10 = add nuw nsw i64 %.219.i, 1
  %11 = getelementptr inbounds nuw i8, ptr %6, i64 %.219.i
  store i8 %8, ptr %11, align 1, !tbaa !24
  %12 = load i8, ptr %9, align 1, !tbaa !24
  %13 = icmp ne i8 %12, 0
  %14 = icmp samesign ult i64 %.219.i, 62
  %15 = select i1 %13, i1 %14, i1 false
  br i1 %15, label %.lr.ph.i, label %png_safecat.exit, !llvm.loop !25

png_safecat.exit:                                 ; preds = %.lr.ph.i, %5, %.preheader.i
  %.1.i = phi i64 [ 0, %5 ], [ 0, %.preheader.i ], [ %10, %.lr.ph.i ]
  %16 = getelementptr inbounds nuw i8, ptr %6, i64 %.1.i
  store i8 0, ptr %16, align 1, !tbaa !24
  %17 = getelementptr inbounds nuw i8, ptr %4, i64 32
  %18 = load i32, ptr %17, align 8, !tbaa !77
  %19 = or i32 %18, 2
  store i32 %19, ptr %17, align 8, !tbaa !77
  %20 = load ptr, ptr %4, align 8, !tbaa !80
  %.not14 = icmp eq ptr %20, null
  br i1 %.not14, label %.lr.ph.i17.preheader, label %21

.lr.ph.i17.preheader:                             ; preds = %21, %png_safecat.exit
  br label %.lr.ph.i17

21:                                               ; preds = %png_safecat.exit
  %22 = getelementptr inbounds nuw i8, ptr %20, i64 16
  %23 = load ptr, ptr %22, align 8, !tbaa !81
  %.not15 = icmp eq ptr %23, null
  br i1 %.not15, label %.lr.ph.i17.preheader, label %24

24:                                               ; preds = %21
  tail call void @longjmp(ptr noundef nonnull %23, i32 noundef 1) #25
  unreachable

.lr.ph.i17:                                       ; preds = %.lr.ph.i17.preheader, %.lr.ph.i17
  %25 = phi i8 [ %29, %.lr.ph.i17 ], [ 98, %.lr.ph.i17.preheader ]
  %.020.i18 = phi ptr [ %26, %.lr.ph.i17 ], [ @.str.3, %.lr.ph.i17.preheader ]
  %.219.i19 = phi i64 [ %27, %.lr.ph.i17 ], [ 0, %.lr.ph.i17.preheader ]
  %26 = getelementptr inbounds nuw i8, ptr %.020.i18, i64 1
  %27 = add nuw nsw i64 %.219.i19, 1
  %28 = getelementptr inbounds nuw i8, ptr %6, i64 %.219.i19
  store i8 %25, ptr %28, align 1, !tbaa !24
  %29 = load i8, ptr %26, align 1, !tbaa !24
  %exitcond.not = icmp eq i64 %27, 13
  br i1 %exitcond.not, label %30, label %.lr.ph.i17, !llvm.loop !25

30:                                               ; preds = %.lr.ph.i17
  %31 = getelementptr inbounds nuw i8, ptr %4, i64 49
  store i8 0, ptr %31, align 1, !tbaa !24
  br i1 %.not18.i, label %png_safecat.exit28, label %.preheader.i23

.preheader.i23:                                   ; preds = %30
  %32 = load i8, ptr %1, align 1, !tbaa !24
  %.not36 = icmp eq i8 %32, 0
  br i1 %.not36, label %png_safecat.exit28, label %.lr.ph.i25

.lr.ph.i25:                                       ; preds = %.preheader.i23, %.lr.ph.i25
  %33 = phi i8 [ %37, %.lr.ph.i25 ], [ %32, %.preheader.i23 ]
  %.020.i26 = phi ptr [ %34, %.lr.ph.i25 ], [ %1, %.preheader.i23 ]
  %.219.i27 = phi i64 [ %35, %.lr.ph.i25 ], [ 13, %.preheader.i23 ]
  %34 = getelementptr inbounds nuw i8, ptr %.020.i26, i64 1
  %35 = add nuw nsw i64 %.219.i27, 1
  %36 = getelementptr inbounds nuw i8, ptr %6, i64 %.219.i27
  store i8 %33, ptr %36, align 1, !tbaa !24
  %37 = load i8, ptr %34, align 1, !tbaa !24
  %38 = icmp ne i8 %37, 0
  %39 = icmp samesign ult i64 %.219.i27, 62
  %40 = select i1 %38, i1 %39, i1 false
  br i1 %40, label %.lr.ph.i25, label %png_safecat.exit28, !llvm.loop !25

png_safecat.exit28:                               ; preds = %.lr.ph.i25, %30, %.preheader.i23
  %.1.i24 = phi i64 [ 13, %30 ], [ 13, %.preheader.i23 ], [ %35, %.lr.ph.i25 ]
  %41 = getelementptr inbounds nuw i8, ptr %6, i64 %.1.i24
  store i8 0, ptr %41, align 1, !tbaa !24
  br label %42

42:                                               ; preds = %png_safecat.exit28, %2
  tail call void @abort() #25
  unreachable
}